(lp1
S'clothing_images/1000.jpg'
p2
aS'clothing_images/100208.jpg'
p3
aS'clothing_images/100612.jpg'
p4
aS'clothing_images/10070.jpg'
p5
aS'clothing_images/100895.jpg'
p6
aS'clothing_images/100999.jpg'
p7
aS'clothing_images/101154.jpg'
p8
aS'clothing_images/101236.jpg'
p9
aS'clothing_images/10125.jpg'
p10
aS'clothing_images/101528.jpg'
p11
aS'clothing_images/10177.jpg'
p12
aS'clothing_images/101845.jpg'
p13
aS'clothing_images/102004.jpg'
p14
aS'clothing_images/102140.jpg'
p15
aS'clothing_images/102279.jpg'
p16
aS'clothing_images/102466.jpg'
p17
aS'clothing_images/102528.jpg'
p18
aS'clothing_images/102631.jpg'
p19
aS'clothing_images/10281.jpg'
p20
aS'clothing_images/10331.jpg'
p21
aS'clothing_images/103500.jpg'
p22
aS'clothing_images/10383.jpg'
p23
aS'clothing_images/103941.jpg'
p24
aS'clothing_images/104071.jpg'
p25
aS'clothing_images/10433.jpg'
p26
aS'clothing_images/104414.jpg'
p27
aS'clothing_images/104666.jpg'
p28
aS'clothing_images/104775.jpg'
p29
aS'clothing_images/10483.jpg'
p30
aS'clothing_images/1050.jpg'
p31
aS'clothing_images/105036.jpg'
p32
aS'clothing_images/105219.jpg'
p33
aS'clothing_images/10533.jpg'
p34
aS'clothing_images/105602.jpg'
p35
aS'clothing_images/105719.jpg'
p36
aS'clothing_images/10584.jpg'
p37
aS'clothing_images/106138.jpg'
p38
aS'clothing_images/106330.jpg'
p39
aS'clothing_images/10634.jpg'
p40
aS'clothing_images/10684.jpg'
p41
aS'clothing_images/107428.jpg'
p42
aS'clothing_images/107658.jpg'
p43
aS'clothing_images/108046.jpg'
p44
aS'clothing_images/10836.jpg'
p45
aS'clothing_images/108808.jpg'
p46
aS'clothing_images/10888.jpg'
p47
aS'clothing_images/109053.jpg'
p48
aS'clothing_images/109398.jpg'
p49
aS'clothing_images/10941.jpg'
p50
aS'clothing_images/10991.jpg'
p51
aS'clothing_images/11041.jpg'
p52
aS'clothing_images/11094.jpg'
p53
aS'clothing_images/1111.jpg'
p54
aS'clothing_images/11144.jpg'
p55
aS'clothing_images/11219.jpg'
p56
aS'clothing_images/11270.jpg'
p57
aS'clothing_images/113608.jpg'
p58
aS'clothing_images/113658.jpg'
p59
aS'clothing_images/113721.jpg'
p60
aS'clothing_images/11376.jpg'
p61
aS'clothing_images/113798.jpg'
p62
aS'clothing_images/113921.jpg'
p63
aS'clothing_images/114025.jpg'
p64
aS'clothing_images/114078.jpg'
p65
aS'clothing_images/114154.jpg'
p66
aS'clothing_images/114204.jpg'
p67
aS'clothing_images/114254.jpg'
p68
aS'clothing_images/11426.jpg'
p69
aS'clothing_images/114334.jpg'
p70
aS'clothing_images/114409.jpg'
p71
aS'clothing_images/114459.jpg'
p72
aS'clothing_images/114522.jpg'
p73
aS'clothing_images/114599.jpg'
p74
aS'clothing_images/114657.jpg'
p75
aS'clothing_images/114736.jpg'
p76
aS'clothing_images/11477.jpg'
p77
aS'clothing_images/114807.jpg'
p78
aS'clothing_images/114868.jpg'
p79
aS'clothing_images/114937.jpg'
p80
aS'clothing_images/115018.jpg'
p81
aS'clothing_images/115105.jpg'
p82
aS'clothing_images/115202.jpg'
p83
aS'clothing_images/115252.jpg'
p84
aS'clothing_images/11528.jpg'
p85
aS'clothing_images/115333.jpg'
p86
aS'clothing_images/115425.jpg'
p87
aS'clothing_images/115498.jpg'
p88
aS'clothing_images/115555.jpg'
p89
aS'clothing_images/115605.jpg'
p90
aS'clothing_images/115673.jpg'
p91
aS'clothing_images/115749.jpg'
p92
aS'clothing_images/115815.jpg'
p93
aS'clothing_images/11584.jpg'
p94
aS'clothing_images/115869.jpg'
p95
aS'clothing_images/115924.jpg'
p96
aS'clothing_images/116066.jpg'
p97
aS'clothing_images/1161.jpg'
p98
aS'clothing_images/116193.jpg'
p99
aS'clothing_images/116243.jpg'
p100
aS'clothing_images/116293.jpg'
p101
aS'clothing_images/11634.jpg'
p102
aS'clothing_images/116343.jpg'
p103
aS'clothing_images/116405.jpg'
p104
aS'clothing_images/116491.jpg'
p105
aS'clothing_images/116578.jpg'
p106
aS'clothing_images/116678.jpg'
p107
aS'clothing_images/116765.jpg'
p108
aS'clothing_images/116815.jpg'
p109
aS'clothing_images/11684.jpg'
p110
aS'clothing_images/116996.jpg'
p111
aS'clothing_images/117105.jpg'
p112
aS'clothing_images/117170.jpg'
p113
aS'clothing_images/117339.jpg'
p114
aS'clothing_images/117461.jpg'
p115
aS'clothing_images/11748.jpg'
p116
aS'clothing_images/117555.jpg'
p117
aS'clothing_images/117627.jpg'
p118
aS'clothing_images/117888.jpg'
p119
aS'clothing_images/117978.jpg'
p120
aS'clothing_images/11800.jpg'
p121
aS'clothing_images/118065.jpg'
p122
aS'clothing_images/118237.jpg'
p123
aS'clothing_images/118350.jpg'
p124
aS'clothing_images/11851.jpg'
p125
aS'clothing_images/118519.jpg'
p126
aS'clothing_images/118579.jpg'
p127
aS'clothing_images/118710.jpg'
p128
aS'clothing_images/118813.jpg'
p129
aS'clothing_images/118892.jpg'
p130
aS'clothing_images/11904.jpg'
p131
aS'clothing_images/119082.jpg'
p132
aS'clothing_images/119164.jpg'
p133
aS'clothing_images/119437.jpg'
p134
aS'clothing_images/119521.jpg'
p135
aS'clothing_images/119583.jpg'
p136
aS'clothing_images/119651.jpg'
p137
aS'clothing_images/11970.jpg'
p138
aS'clothing_images/119708.jpg'
p139
aS'clothing_images/119830.jpg'
p140
aS'clothing_images/119909.jpg'
p141
aS'clothing_images/120.jpg'
p142
aS'clothing_images/120009.jpg'
p143
aS'clothing_images/120294.jpg'
p144
aS'clothing_images/120374.jpg'
p145
aS'clothing_images/120486.jpg'
p146
aS'clothing_images/12055.jpg'
p147
aS'clothing_images/120552.jpg'
p148
aS'clothing_images/120647.jpg'
p149
aS'clothing_images/120741.jpg'
p150
aS'clothing_images/120920.jpg'
p151
aS'clothing_images/121016.jpg'
p152
aS'clothing_images/12105.jpg'
p153
aS'clothing_images/121085.jpg'
p154
aS'clothing_images/1211.jpg'
p155
aS'clothing_images/121135.jpg'
p156
aS'clothing_images/121190.jpg'
p157
aS'clothing_images/121282.jpg'
p158
aS'clothing_images/121366.jpg'
p159
aS'clothing_images/121505.jpg'
p160
aS'clothing_images/121704.jpg'
p161
aS'clothing_images/12180.jpg'
p162
aS'clothing_images/121840.jpg'
p163
aS'clothing_images/121948.jpg'
p164
aS'clothing_images/122049.jpg'
p165
aS'clothing_images/122120.jpg'
p166
aS'clothing_images/122192.jpg'
p167
aS'clothing_images/122296.jpg'
p168
aS'clothing_images/12234.jpg'
p169
aS'clothing_images/122352.jpg'
p170
aS'clothing_images/122470.jpg'
p171
aS'clothing_images/122559.jpg'
p172
aS'clothing_images/122680.jpg'
p173
aS'clothing_images/122779.jpg'
p174
aS'clothing_images/12285.jpg'
p175
aS'clothing_images/122910.jpg'
p176
aS'clothing_images/123076.jpg'
p177
aS'clothing_images/123150.jpg'
p178
aS'clothing_images/123259.jpg'
p179
aS'clothing_images/123352.jpg'
p180
aS'clothing_images/12337.jpg'
p181
aS'clothing_images/123465.jpg'
p182
aS'clothing_images/123518.jpg'
p183
aS'clothing_images/123642.jpg'
p184
aS'clothing_images/123817.jpg'
p185
aS'clothing_images/124070.jpg'
p186
aS'clothing_images/12417.jpg'
p187
aS'clothing_images/124312.jpg'
p188
aS'clothing_images/124455.jpg'
p189
aS'clothing_images/124543.jpg'
p190
aS'clothing_images/12469.jpg'
p191
aS'clothing_images/125121.jpg'
p192
aS'clothing_images/12520.jpg'
p193
aS'clothing_images/125319.jpg'
p194
aS'clothing_images/125377.jpg'
p195
aS'clothing_images/125437.jpg'
p196
aS'clothing_images/125563.jpg'
p197
aS'clothing_images/125698.jpg'
p198
aS'clothing_images/125829.jpg'
p199
aS'clothing_images/125945.jpg'
p200
aS'clothing_images/126019.jpg'
p201
aS'clothing_images/1261.jpg'
p202
aS'clothing_images/12620.jpg'
p203
aS'clothing_images/126299.jpg'
p204
aS'clothing_images/126467.jpg'
p205
aS'clothing_images/126597.jpg'
p206
aS'clothing_images/12670.jpg'
p207
aS'clothing_images/126703.jpg'
p208
aS'clothing_images/126828.jpg'
p209
aS'clothing_images/126948.jpg'
p210
aS'clothing_images/127162.jpg'
p211
aS'clothing_images/12720.jpg'
p212
aS'clothing_images/127282.jpg'
p213
aS'clothing_images/127352.jpg'
p214
aS'clothing_images/127411.jpg'
p215
aS'clothing_images/127653.jpg'
p216
aS'clothing_images/12770.jpg'
p217
aS'clothing_images/128135.jpg'
p218
aS'clothing_images/12822.jpg'
p219
aS'clothing_images/128285.jpg'
p220
aS'clothing_images/128454.jpg'
p221
aS'clothing_images/128725.jpg'
p222
aS'clothing_images/12891.jpg'
p223
aS'clothing_images/128978.jpg'
p224
aS'clothing_images/129179.jpg'
p225
aS'clothing_images/129352.jpg'
p226
aS'clothing_images/12949.jpg'
p227
aS'clothing_images/129493.jpg'
p228
aS'clothing_images/129569.jpg'
p229
aS'clothing_images/129789.jpg'
p230
aS'clothing_images/13005.jpg'
p231
aS'clothing_images/130126.jpg'
p232
aS'clothing_images/130273.jpg'
p233
aS'clothing_images/130458.jpg'
p234
aS'clothing_images/13055.jpg'
p235
aS'clothing_images/130702.jpg'
p236
aS'clothing_images/130810.jpg'
p237
aS'clothing_images/13105.jpg'
p238
aS'clothing_images/131502.jpg'
p239
aS'clothing_images/131594.jpg'
p240
aS'clothing_images/131837.jpg'
p241
aS'clothing_images/13208.jpg'
p242
aS'clothing_images/132099.jpg'
p243
aS'clothing_images/132424.jpg'
p244
aS'clothing_images/132562.jpg'
p245
aS'clothing_images/13260.jpg'
p246
aS'clothing_images/132748.jpg'
p247
aS'clothing_images/132848.jpg'
p248
aS'clothing_images/13310.jpg'
p249
aS'clothing_images/133412.jpg'
p250
aS'clothing_images/13360.jpg'
p251
aS'clothing_images/133726.jpg'
p252
aS'clothing_images/13410.jpg'
p253
aS'clothing_images/134505.jpg'
p254
aS'clothing_images/13464.jpg'
p255
aS'clothing_images/134670.jpg'
p256
aS'clothing_images/1349.jpg'
p257
aS'clothing_images/135016.jpg'
p258
aS'clothing_images/13514.jpg'
p259
aS'clothing_images/13564.jpg'
p260
aS'clothing_images/13618.jpg'
p261
aS'clothing_images/136636.jpg'
p262
aS'clothing_images/13668.jpg'
p263
aS'clothing_images/13768.jpg'
p264
aS'clothing_images/137766.jpg'
p265
aS'clothing_images/137922.jpg'
p266
aS'clothing_images/13818.jpg'
p267
aS'clothing_images/138621.jpg'
p268
aS'clothing_images/138727.jpg'
p269
aS'clothing_images/138811.jpg'
p270
aS'clothing_images/13887.jpg'
p271
aS'clothing_images/138907.jpg'
p272
aS'clothing_images/138964.jpg'
p273
aS'clothing_images/139014.jpg'
p274
aS'clothing_images/139147.jpg'
p275
aS'clothing_images/139209.jpg'
p276
aS'clothing_images/139268.jpg'
p277
aS'clothing_images/139335.jpg'
p278
aS'clothing_images/13937.jpg'
p279
aS'clothing_images/139510.jpg'
p280
aS'clothing_images/139574.jpg'
p281
aS'clothing_images/139647.jpg'
p282
aS'clothing_images/139711.jpg'
p283
aS'clothing_images/139770.jpg'
p284
aS'clothing_images/139820.jpg'
p285
aS'clothing_images/13987.jpg'
p286
aS'clothing_images/139928.jpg'
p287
aS'clothing_images/1400.jpg'
p288
aS'clothing_images/140027.jpg'
p289
aS'clothing_images/140093.jpg'
p290
aS'clothing_images/140240.jpg'
p291
aS'clothing_images/140295.jpg'
p292
aS'clothing_images/140409.jpg'
p293
aS'clothing_images/14042.jpg'
p294
aS'clothing_images/140469.jpg'
p295
aS'clothing_images/140532.jpg'
p296
aS'clothing_images/140694.jpg'
p297
aS'clothing_images/140744.jpg'
p298
aS'clothing_images/140795.jpg'
p299
aS'clothing_images/140889.jpg'
p300
aS'clothing_images/14092.jpg'
p301
aS'clothing_images/140968.jpg'
p302
aS'clothing_images/141107.jpg'
p303
aS'clothing_images/141161.jpg'
p304
aS'clothing_images/141247.jpg'
p305
aS'clothing_images/141336.jpg'
p306
aS'clothing_images/141406.jpg'
p307
aS'clothing_images/14145.jpg'
p308
aS'clothing_images/141552.jpg'
p309
aS'clothing_images/141609.jpg'
p310
aS'clothing_images/141672.jpg'
p311
aS'clothing_images/141751.jpg'
p312
aS'clothing_images/141856.jpg'
p313
aS'clothing_images/141941.jpg'
p314
aS'clothing_images/14195.jpg'
p315
aS'clothing_images/142066.jpg'
p316
aS'clothing_images/142226.jpg'
p317
aS'clothing_images/142286.jpg'
p318
aS'clothing_images/142338.jpg'
p319
aS'clothing_images/14245.jpg'
p320
aS'clothing_images/142453.jpg'
p321
aS'clothing_images/142520.jpg'
p322
aS'clothing_images/142581.jpg'
p323
aS'clothing_images/142667.jpg'
p324
aS'clothing_images/142730.jpg'
p325
aS'clothing_images/142823.jpg'
p326
aS'clothing_images/142913.jpg'
p327
aS'clothing_images/142968.jpg'
p328
aS'clothing_images/143084.jpg'
p329
aS'clothing_images/143176.jpg'
p330
aS'clothing_images/143261.jpg'
p331
aS'clothing_images/14332.jpg'
p332
aS'clothing_images/143342.jpg'
p333
aS'clothing_images/143413.jpg'
p334
aS'clothing_images/143476.jpg'
p335
aS'clothing_images/143561.jpg'
p336
aS'clothing_images/143616.jpg'
p337
aS'clothing_images/143673.jpg'
p338
aS'clothing_images/14382.jpg'
p339
aS'clothing_images/143878.jpg'
p340
aS'clothing_images/144051.jpg'
p341
aS'clothing_images/144200.jpg'
p342
aS'clothing_images/144352.jpg'
p343
aS'clothing_images/14436.jpg'
p344
aS'clothing_images/144402.jpg'
p345
aS'clothing_images/144452.jpg'
p346
aS'clothing_images/144605.jpg'
p347
aS'clothing_images/144683.jpg'
p348
aS'clothing_images/14488.jpg'
p349
aS'clothing_images/144954.jpg'
p350
aS'clothing_images/145027.jpg'
p351
aS'clothing_images/145162.jpg'
p352
aS'clothing_images/145221.jpg'
p353
aS'clothing_images/145317.jpg'
p354
aS'clothing_images/145393.jpg'
p355
aS'clothing_images/145582.jpg'
p356
aS'clothing_images/14561.jpg'
p357
aS'clothing_images/145695.jpg'
p358
aS'clothing_images/145950.jpg'
p359
aS'clothing_images/146030.jpg'
p360
aS'clothing_images/146094.jpg'
p361
aS'clothing_images/14616.jpg'
p362
aS'clothing_images/146177.jpg'
p363
aS'clothing_images/146341.jpg'
p364
aS'clothing_images/146469.jpg'
p365
aS'clothing_images/146552.jpg'
p366
aS'clothing_images/146620.jpg'
p367
aS'clothing_images/14669.jpg'
p368
aS'clothing_images/146692.jpg'
p369
aS'clothing_images/146768.jpg'
p370
aS'clothing_images/146859.jpg'
p371
aS'clothing_images/147065.jpg'
p372
aS'clothing_images/147146.jpg'
p373
aS'clothing_images/147198.jpg'
p374
aS'clothing_images/14731.jpg'
p375
aS'clothing_images/147382.jpg'
p376
aS'clothing_images/147436.jpg'
p377
aS'clothing_images/147567.jpg'
p378
aS'clothing_images/147636.jpg'
p379
aS'clothing_images/147705.jpg'
p380
aS'clothing_images/147817.jpg'
p381
aS'clothing_images/14785.jpg'
p382
aS'clothing_images/148051.jpg'
p383
aS'clothing_images/148118.jpg'
p384
aS'clothing_images/148207.jpg'
p385
aS'clothing_images/148304.jpg'
p386
aS'clothing_images/14835.jpg'
p387
aS'clothing_images/148425.jpg'
p388
aS'clothing_images/148756.jpg'
p389
aS'clothing_images/148836.jpg'
p390
aS'clothing_images/14885.jpg'
p391
aS'clothing_images/148886.jpg'
p392
aS'clothing_images/149143.jpg'
p393
aS'clothing_images/149278.jpg'
p394
aS'clothing_images/14937.jpg'
p395
aS'clothing_images/149389.jpg'
p396
aS'clothing_images/149446.jpg'
p397
aS'clothing_images/149751.jpg'
p398
aS'clothing_images/14987.jpg'
p399
aS'clothing_images/150070.jpg'
p400
aS'clothing_images/15037.jpg'
p401
aS'clothing_images/150833.jpg'
p402
aS'clothing_images/15087.jpg'
p403
aS'clothing_images/151049.jpg'
p404
aS'clothing_images/151682.jpg'
p405
aS'clothing_images/151764.jpg'
p406
aS'clothing_images/15177.jpg'
p407
aS'clothing_images/151884.jpg'
p408
aS'clothing_images/152002.jpg'
p409
aS'clothing_images/152073.jpg'
p410
aS'clothing_images/152193.jpg'
p411
aS'clothing_images/15227.jpg'
p412
aS'clothing_images/152301.jpg'
p413
aS'clothing_images/152835.jpg'
p414
aS'clothing_images/15313.jpg'
p415
aS'clothing_images/153133.jpg'
p416
aS'clothing_images/153289.jpg'
p417
aS'clothing_images/153460.jpg'
p418
aS'clothing_images/153564.jpg'
p419
aS'clothing_images/153661.jpg'
p420
aS'clothing_images/153812.jpg'
p421
aS'clothing_images/153913.jpg'
p422
aS'clothing_images/153993.jpg'
p423
aS'clothing_images/154089.jpg'
p424
aS'clothing_images/15419.jpg'
p425
aS'clothing_images/154632.jpg'
p426
aS'clothing_images/154791.jpg'
p427
aS'clothing_images/155069.jpg'
p428
aS'clothing_images/155181.jpg'
p429
aS'clothing_images/155467.jpg'
p430
aS'clothing_images/155805.jpg'
p431
aS'clothing_images/15604.jpg'
p432
aS'clothing_images/156076.jpg'
p433
aS'clothing_images/156261.jpg'
p434
aS'clothing_images/156536.jpg'
p435
aS'clothing_images/15657.jpg'
p436
aS'clothing_images/156649.jpg'
p437
aS'clothing_images/156950.jpg'
p438
aS'clothing_images/15708.jpg'
p439
aS'clothing_images/157431.jpg'
p440
aS'clothing_images/157540.jpg'
p441
aS'clothing_images/15758.jpg'
p442
aS'clothing_images/157764.jpg'
p443
aS'clothing_images/158022.jpg'
p444
aS'clothing_images/15808.jpg'
p445
aS'clothing_images/158288.jpg'
p446
aS'clothing_images/15867.jpg'
p447
aS'clothing_images/15928.jpg'
p448
aS'clothing_images/15978.jpg'
p449
aS'clothing_images/159814.jpg'
p450
aS'clothing_images/160231.jpg'
p451
aS'clothing_images/16036.jpg'
p452
aS'clothing_images/160440.jpg'
p453
aS'clothing_images/16086.jpg'
p454
aS'clothing_images/16136.jpg'
p455
aS'clothing_images/16186.jpg'
p456
aS'clothing_images/162428.jpg'
p457
aS'clothing_images/16247.jpg'
p458
aS'clothing_images/162845.jpg'
p459
aS'clothing_images/162904.jpg'
p460
aS'clothing_images/162954.jpg'
p461
aS'clothing_images/163023.jpg'
p462
aS'clothing_images/16303.jpg'
p463
aS'clothing_images/163180.jpg'
p464
aS'clothing_images/163255.jpg'
p465
aS'clothing_images/163305.jpg'
p466
aS'clothing_images/163358.jpg'
p467
aS'clothing_images/163424.jpg'
p468
aS'clothing_images/163488.jpg'
p469
aS'clothing_images/16356.jpg'
p470
aS'clothing_images/163609.jpg'
p471
aS'clothing_images/163689.jpg'
p472
aS'clothing_images/163880.jpg'
p473
aS'clothing_images/164029.jpg'
p474
aS'clothing_images/164087.jpg'
p475
aS'clothing_images/164140.jpg'
p476
aS'clothing_images/164207.jpg'
p477
aS'clothing_images/164328.jpg'
p478
aS'clothing_images/164437.jpg'
p479
aS'clothing_images/16445.jpg'
p480
aS'clothing_images/164493.jpg'
p481
aS'clothing_images/164625.jpg'
p482
aS'clothing_images/164692.jpg'
p483
aS'clothing_images/164749.jpg'
p484
aS'clothing_images/164799.jpg'
p485
aS'clothing_images/164855.jpg'
p486
aS'clothing_images/164930.jpg'
p487
aS'clothing_images/164993.jpg'
p488
aS'clothing_images/16500.jpg'
p489
aS'clothing_images/165090.jpg'
p490
aS'clothing_images/165175.jpg'
p491
aS'clothing_images/165226.jpg'
p492
aS'clothing_images/165276.jpg'
p493
aS'clothing_images/165326.jpg'
p494
aS'clothing_images/165440.jpg'
p495
aS'clothing_images/165494.jpg'
p496
aS'clothing_images/16556.jpg'
p497
aS'clothing_images/165603.jpg'
p498
aS'clothing_images/165665.jpg'
p499
aS'clothing_images/165721.jpg'
p500
aS'clothing_images/165834.jpg'
p501
aS'clothing_images/165886.jpg'
p502
aS'clothing_images/165960.jpg'
p503
aS'clothing_images/166035.jpg'
p504
aS'clothing_images/166126.jpg'
p505
aS'clothing_images/16613.jpg'
p506
aS'clothing_images/166269.jpg'
p507
aS'clothing_images/166412.jpg'
p508
aS'clothing_images/166481.jpg'
p509
aS'clothing_images/166592.jpg'
p510
aS'clothing_images/16668.jpg'
p511
aS'clothing_images/166695.jpg'
p512
aS'clothing_images/166828.jpg'
p513
aS'clothing_images/166878.jpg'
p514
aS'clothing_images/167027.jpg'
p515
aS'clothing_images/167087.jpg'
p516
aS'clothing_images/167170.jpg'
p517
aS'clothing_images/16722.jpg'
p518
aS'clothing_images/167290.jpg'
p519
aS'clothing_images/167395.jpg'
p520
aS'clothing_images/167457.jpg'
p521
aS'clothing_images/167519.jpg'
p522
aS'clothing_images/167590.jpg'
p523
aS'clothing_images/16783.jpg'
p524
aS'clothing_images/167893.jpg'
p525
aS'clothing_images/167958.jpg'
p526
aS'clothing_images/168076.jpg'
p527
aS'clothing_images/168165.jpg'
p528
aS'clothing_images/168288.jpg'
p529
aS'clothing_images/168346.jpg'
p530
aS'clothing_images/16840.jpg'
p531
aS'clothing_images/168432.jpg'
p532
aS'clothing_images/168565.jpg'
p533
aS'clothing_images/168639.jpg'
p534
aS'clothing_images/168712.jpg'
p535
aS'clothing_images/16893.jpg'
p536
aS'clothing_images/168983.jpg'
p537
aS'clothing_images/169079.jpg'
p538
aS'clothing_images/169174.jpg'
p539
aS'clothing_images/169373.jpg'
p540
aS'clothing_images/16943.jpg'
p541
aS'clothing_images/169500.jpg'
p542
aS'clothing_images/169654.jpg'
p543
aS'clothing_images/169879.jpg'
p544
aS'clothing_images/16994.jpg'
p545
aS'clothing_images/169974.jpg'
p546
aS'clothing_images/170080.jpg'
p547
aS'clothing_images/170297.jpg'
p548
aS'clothing_images/170434.jpg'
p549
aS'clothing_images/17044.jpg'
p550
aS'clothing_images/170503.jpg'
p551
aS'clothing_images/170572.jpg'
p552
aS'clothing_images/170714.jpg'
p553
aS'clothing_images/170881.jpg'
p554
aS'clothing_images/170961.jpg'
p555
aS'clothing_images/17104.jpg'
p556
aS'clothing_images/171068.jpg'
p557
aS'clothing_images/171187.jpg'
p558
aS'clothing_images/171253.jpg'
p559
aS'clothing_images/171372.jpg'
p560
aS'clothing_images/171459.jpg'
p561
aS'clothing_images/171572.jpg'
p562
aS'clothing_images/17161.jpg'
p563
aS'clothing_images/171655.jpg'
p564
aS'clothing_images/171886.jpg'
p565
aS'clothing_images/171960.jpg'
p566
aS'clothing_images/172142.jpg'
p567
aS'clothing_images/17223.jpg'
p568
aS'clothing_images/172262.jpg'
p569
aS'clothing_images/172334.jpg'
p570
aS'clothing_images/172435.jpg'
p571
aS'clothing_images/172641.jpg'
p572
aS'clothing_images/172744.jpg'
p573
aS'clothing_images/17283.jpg'
p574
aS'clothing_images/172854.jpg'
p575
aS'clothing_images/172991.jpg'
p576
aS'clothing_images/173.jpg'
p577
aS'clothing_images/173173.jpg'
p578
aS'clothing_images/173274.jpg'
p579
aS'clothing_images/17336.jpg'
p580
aS'clothing_images/173381.jpg'
p581
aS'clothing_images/17391.jpg'
p582
aS'clothing_images/174030.jpg'
p583
aS'clothing_images/174103.jpg'
p584
aS'clothing_images/174197.jpg'
p585
aS'clothing_images/174380.jpg'
p586
aS'clothing_images/17441.jpg'
p587
aS'clothing_images/174485.jpg'
p588
aS'clothing_images/174571.jpg'
p589
aS'clothing_images/174661.jpg'
p590
aS'clothing_images/174771.jpg'
p591
aS'clothing_images/174888.jpg'
p592
aS'clothing_images/17492.jpg'
p593
aS'clothing_images/175088.jpg'
p594
aS'clothing_images/175207.jpg'
p595
aS'clothing_images/175280.jpg'
p596
aS'clothing_images/175368.jpg'
p597
aS'clothing_images/175426.jpg'
p598
aS'clothing_images/17544.jpg'
p599
aS'clothing_images/175570.jpg'
p600
aS'clothing_images/175663.jpg'
p601
aS'clothing_images/175765.jpg'
p602
aS'clothing_images/175854.jpg'
p603
aS'clothing_images/17600.jpg'
p604
aS'clothing_images/176243.jpg'
p605
aS'clothing_images/17654.jpg'
p606
aS'clothing_images/176567.jpg'
p607
aS'clothing_images/177019.jpg'
p608
aS'clothing_images/177089.jpg'
p609
aS'clothing_images/17715.jpg'
p610
aS'clothing_images/177173.jpg'
p611
aS'clothing_images/177233.jpg'
p612
aS'clothing_images/177305.jpg'
p613
aS'clothing_images/177582.jpg'
p614
aS'clothing_images/17765.jpg'
p615
aS'clothing_images/177682.jpg'
p616
aS'clothing_images/177883.jpg'
p617
aS'clothing_images/1781.jpg'
p618
aS'clothing_images/17815.jpg'
p619
aS'clothing_images/178394.jpg'
p620
aS'clothing_images/17865.jpg'
p621
aS'clothing_images/178651.jpg'
p622
aS'clothing_images/178705.jpg'
p623
aS'clothing_images/178998.jpg'
p624
aS'clothing_images/179078.jpg'
p625
aS'clothing_images/17915.jpg'
p626
aS'clothing_images/179229.jpg'
p627
aS'clothing_images/179572.jpg'
p628
aS'clothing_images/17987.jpg'
p629
aS'clothing_images/179973.jpg'
p630
aS'clothing_images/180108.jpg'
p631
aS'clothing_images/180296.jpg'
p632
aS'clothing_images/18037.jpg'
p633
aS'clothing_images/18091.jpg'
p634
aS'clothing_images/181135.jpg'
p635
aS'clothing_images/181460.jpg'
p636
aS'clothing_images/18147.jpg'
p637
aS'clothing_images/181543.jpg'
p638
aS'clothing_images/181705.jpg'
p639
aS'clothing_images/181839.jpg'
p640
aS'clothing_images/18207.jpg'
p641
aS'clothing_images/182398.jpg'
p642
aS'clothing_images/18258.jpg'
p643
aS'clothing_images/182985.jpg'
p644
aS'clothing_images/18308.jpg'
p645
aS'clothing_images/1831.jpg'
p646
aS'clothing_images/183143.jpg'
p647
aS'clothing_images/183588.jpg'
p648
aS'clothing_images/18362.jpg'
p649
aS'clothing_images/18419.jpg'
p650
aS'clothing_images/184431.jpg'
p651
aS'clothing_images/184547.jpg'
p652
aS'clothing_images/184725.jpg'
p653
aS'clothing_images/18474.jpg'
p654
aS'clothing_images/185487.jpg'
p655
aS'clothing_images/18574.jpg'
p656
aS'clothing_images/18683.jpg'
p657
aS'clothing_images/187094.jpg'
p658
aS'clothing_images/187181.jpg'
p659
aS'clothing_images/187237.jpg'
p660
aS'clothing_images/187343.jpg'
p661
aS'clothing_images/187422.jpg'
p662
aS'clothing_images/187492.jpg'
p663
aS'clothing_images/187546.jpg'
p664
aS'clothing_images/187654.jpg'
p665
aS'clothing_images/187704.jpg'
p666
aS'clothing_images/187754.jpg'
p667
aS'clothing_images/187834.jpg'
p668
aS'clothing_images/18803.jpg'
p669
aS'clothing_images/188047.jpg'
p670
aS'clothing_images/188107.jpg'
p671
aS'clothing_images/188157.jpg'
p672
aS'clothing_images/1882.jpg'
p673
aS'clothing_images/188217.jpg'
p674
aS'clothing_images/188301.jpg'
p675
aS'clothing_images/188365.jpg'
p676
aS'clothing_images/188446.jpg'
p677
aS'clothing_images/188523.jpg'
p678
aS'clothing_images/18853.jpg'
p679
aS'clothing_images/188588.jpg'
p680
aS'clothing_images/188659.jpg'
p681
aS'clothing_images/188709.jpg'
p682
aS'clothing_images/188764.jpg'
p683
aS'clothing_images/188822.jpg'
p684
aS'clothing_images/188879.jpg'
p685
aS'clothing_images/188929.jpg'
p686
aS'clothing_images/188982.jpg'
p687
aS'clothing_images/189073.jpg'
p688
aS'clothing_images/18910.jpg'
p689
aS'clothing_images/189136.jpg'
p690
aS'clothing_images/189197.jpg'
p691
aS'clothing_images/189275.jpg'
p692
aS'clothing_images/189325.jpg'
p693
aS'clothing_images/189379.jpg'
p694
aS'clothing_images/189435.jpg'
p695
aS'clothing_images/189498.jpg'
p696
aS'clothing_images/189548.jpg'
p697
aS'clothing_images/189598.jpg'
p698
aS'clothing_images/18964.jpg'
p699
aS'clothing_images/189648.jpg'
p700
aS'clothing_images/189699.jpg'
p701
aS'clothing_images/189762.jpg'
p702
aS'clothing_images/189853.jpg'
p703
aS'clothing_images/189924.jpg'
p704
aS'clothing_images/190008.jpg'
p705
aS'clothing_images/190077.jpg'
p706
aS'clothing_images/19014.jpg'
p707
aS'clothing_images/190143.jpg'
p708
aS'clothing_images/190217.jpg'
p709
aS'clothing_images/190273.jpg'
p710
aS'clothing_images/190352.jpg'
p711
aS'clothing_images/190402.jpg'
p712
aS'clothing_images/190479.jpg'
p713
aS'clothing_images/190569.jpg'
p714
aS'clothing_images/190635.jpg'
p715
aS'clothing_images/190705.jpg'
p716
aS'clothing_images/190786.jpg'
p717
aS'clothing_images/190917.jpg'
p718
aS'clothing_images/190990.jpg'
p719
aS'clothing_images/191064.jpg'
p720
aS'clothing_images/19117.jpg'
p721
aS'clothing_images/191237.jpg'
p722
aS'clothing_images/191298.jpg'
p723
aS'clothing_images/191423.jpg'
p724
aS'clothing_images/191610.jpg'
p725
aS'clothing_images/191671.jpg'
p726
aS'clothing_images/19171.jpg'
p727
aS'clothing_images/191725.jpg'
p728
aS'clothing_images/191994.jpg'
p729
aS'clothing_images/192086.jpg'
p730
aS'clothing_images/192146.jpg'
p731
aS'clothing_images/19221.jpg'
p732
aS'clothing_images/192315.jpg'
p733
aS'clothing_images/192435.jpg'
p734
aS'clothing_images/192531.jpg'
p735
aS'clothing_images/192628.jpg'
p736
aS'clothing_images/192686.jpg'
p737
aS'clothing_images/19271.jpg'
p738
aS'clothing_images/192740.jpg'
p739
aS'clothing_images/192817.jpg'
p740
aS'clothing_images/192882.jpg'
p741
aS'clothing_images/193017.jpg'
p742
aS'clothing_images/193106.jpg'
p743
aS'clothing_images/1932.jpg'
p744
aS'clothing_images/193211.jpg'
p745
aS'clothing_images/19326.jpg'
p746
aS'clothing_images/193307.jpg'
p747
aS'clothing_images/193393.jpg'
p748
aS'clothing_images/193454.jpg'
p749
aS'clothing_images/193507.jpg'
p750
aS'clothing_images/193592.jpg'
p751
aS'clothing_images/193711.jpg'
p752
aS'clothing_images/193781.jpg'
p753
aS'clothing_images/19379.jpg'
p754
aS'clothing_images/193831.jpg'
p755
aS'clothing_images/193937.jpg'
p756
aS'clothing_images/193994.jpg'
p757
aS'clothing_images/194045.jpg'
p758
aS'clothing_images/194167.jpg'
p759
aS'clothing_images/194243.jpg'
p760
aS'clothing_images/19429.jpg'
p761
aS'clothing_images/194298.jpg'
p762
aS'clothing_images/194380.jpg'
p763
aS'clothing_images/194577.jpg'
p764
aS'clothing_images/19479.jpg'
p765
aS'clothing_images/194927.jpg'
p766
aS'clothing_images/194999.jpg'
p767
aS'clothing_images/19537.jpg'
p768
aS'clothing_images/195459.jpg'
p769
aS'clothing_images/195510.jpg'
p770
aS'clothing_images/195580.jpg'
p771
aS'clothing_images/195670.jpg'
p772
aS'clothing_images/195783.jpg'
p773
aS'clothing_images/195863.jpg'
p774
aS'clothing_images/19589.jpg'
p775
aS'clothing_images/195965.jpg'
p776
aS'clothing_images/196103.jpg'
p777
aS'clothing_images/196167.jpg'
p778
aS'clothing_images/196330.jpg'
p779
aS'clothing_images/196473.jpg'
p780
aS'clothing_images/19659.jpg'
p781
aS'clothing_images/196703.jpg'
p782
aS'clothing_images/196898.jpg'
p783
aS'clothing_images/196979.jpg'
p784
aS'clothing_images/197087.jpg'
p785
aS'clothing_images/197162.jpg'
p786
aS'clothing_images/19719.jpg'
p787
aS'clothing_images/197393.jpg'
p788
aS'clothing_images/197480.jpg'
p789
aS'clothing_images/197592.jpg'
p790
aS'clothing_images/197672.jpg'
p791
aS'clothing_images/19769.jpg'
p792
aS'clothing_images/197893.jpg'
p793
aS'clothing_images/19819.jpg'
p794
aS'clothing_images/198193.jpg'
p795
aS'clothing_images/198289.jpg'
p796
aS'clothing_images/198530.jpg'
p797
aS'clothing_images/198687.jpg'
p798
aS'clothing_images/19870.jpg'
p799
aS'clothing_images/198738.jpg'
p800
aS'clothing_images/198846.jpg'
p801
aS'clothing_images/198993.jpg'
p802
aS'clothing_images/19920.jpg'
p803
aS'clothing_images/199403.jpg'
p804
aS'clothing_images/199609.jpg'
p805
aS'clothing_images/19970.jpg'
p806
aS'clothing_images/199815.jpg'
p807
aS'clothing_images/199973.jpg'
p808
aS'clothing_images/20021.jpg'
p809
aS'clothing_images/200235.jpg'
p810
aS'clothing_images/200329.jpg'
p811
aS'clothing_images/200399.jpg'
p812
aS'clothing_images/200506.jpg'
p813
aS'clothing_images/200684.jpg'
p814
aS'clothing_images/20071.jpg'
p815
aS'clothing_images/200884.jpg'
p816
aS'clothing_images/200994.jpg'
p817
aS'clothing_images/201128.jpg'
p818
aS'clothing_images/20121.jpg'
p819
aS'clothing_images/201253.jpg'
p820
aS'clothing_images/201319.jpg'
p821
aS'clothing_images/2014.jpg'
p822
aS'clothing_images/201435.jpg'
p823
aS'clothing_images/201524.jpg'
p824
aS'clothing_images/20171.jpg'
p825
aS'clothing_images/201951.jpg'
p826
aS'clothing_images/202041.jpg'
p827
aS'clothing_images/202142.jpg'
p828
aS'clothing_images/20221.jpg'
p829
aS'clothing_images/202260.jpg'
p830
aS'clothing_images/202697.jpg'
p831
aS'clothing_images/20272.jpg'
p832
aS'clothing_images/202888.jpg'
p833
aS'clothing_images/20322.jpg'
p834
aS'clothing_images/203532.jpg'
p835
aS'clothing_images/20372.jpg'
p836
aS'clothing_images/203860.jpg'
p837
aS'clothing_images/204096.jpg'
p838
aS'clothing_images/20422.jpg'
p839
aS'clothing_images/204516.jpg'
p840
aS'clothing_images/204705.jpg'
p841
aS'clothing_images/20472.jpg'
p842
aS'clothing_images/205044.jpg'
p843
aS'clothing_images/20522.jpg'
p844
aS'clothing_images/205355.jpg'
p845
aS'clothing_images/205633.jpg'
p846
aS'clothing_images/20573.jpg'
p847
aS'clothing_images/205757.jpg'
p848
aS'clothing_images/20624.jpg'
p849
aS'clothing_images/20674.jpg'
p850
aS'clothing_images/207117.jpg'
p851
aS'clothing_images/20738.jpg'
p852
aS'clothing_images/207716.jpg'
p853
aS'clothing_images/20788.jpg'
p854
aS'clothing_images/208275.jpg'
p855
aS'clothing_images/20838.jpg'
p856
aS'clothing_images/208715.jpg'
p857
aS'clothing_images/20888.jpg'
p858
aS'clothing_images/20938.jpg'
p859
aS'clothing_images/209800.jpg'
p860
aS'clothing_images/20988.jpg'
p861
aS'clothing_images/21038.jpg'
p862
aS'clothing_images/2106.jpg'
p863
aS'clothing_images/21088.jpg'
p864
aS'clothing_images/210927.jpg'
p865
aS'clothing_images/210977.jpg'
p866
aS'clothing_images/211032.jpg'
p867
aS'clothing_images/211088.jpg'
p868
aS'clothing_images/211157.jpg'
p869
aS'clothing_images/211240.jpg'
p870
aS'clothing_images/211312.jpg'
p871
aS'clothing_images/211364.jpg'
p872
aS'clothing_images/21138.jpg'
p873
aS'clothing_images/211523.jpg'
p874
aS'clothing_images/211573.jpg'
p875
aS'clothing_images/211631.jpg'
p876
aS'clothing_images/211772.jpg'
p877
aS'clothing_images/211851.jpg'
p878
aS'clothing_images/21188.jpg'
p879
aS'clothing_images/211932.jpg'
p880
aS'clothing_images/211997.jpg'
p881
aS'clothing_images/212066.jpg'
p882
aS'clothing_images/212124.jpg'
p883
aS'clothing_images/212190.jpg'
p884
aS'clothing_images/212260.jpg'
p885
aS'clothing_images/212327.jpg'
p886
aS'clothing_images/212389.jpg'
p887
aS'clothing_images/21240.jpg'
p888
aS'clothing_images/212439.jpg'
p889
aS'clothing_images/212527.jpg'
p890
aS'clothing_images/212587.jpg'
p891
aS'clothing_images/212637.jpg'
p892
aS'clothing_images/212687.jpg'
p893
aS'clothing_images/212737.jpg'
p894
aS'clothing_images/212791.jpg'
p895
aS'clothing_images/212853.jpg'
p896
aS'clothing_images/21290.jpg'
p897
aS'clothing_images/212928.jpg'
p898
aS'clothing_images/212994.jpg'
p899
aS'clothing_images/213044.jpg'
p900
aS'clothing_images/213095.jpg'
p901
aS'clothing_images/213193.jpg'
p902
aS'clothing_images/213255.jpg'
p903
aS'clothing_images/213322.jpg'
p904
aS'clothing_images/213398.jpg'
p905
aS'clothing_images/21340.jpg'
p906
aS'clothing_images/213459.jpg'
p907
aS'clothing_images/213555.jpg'
p908
aS'clothing_images/213700.jpg'
p909
aS'clothing_images/213809.jpg'
p910
aS'clothing_images/213881.jpg'
p911
aS'clothing_images/213958.jpg'
p912
aS'clothing_images/214036.jpg'
p913
aS'clothing_images/21407.jpg'
p914
aS'clothing_images/214172.jpg'
p915
aS'clothing_images/214251.jpg'
p916
aS'clothing_images/214372.jpg'
p917
aS'clothing_images/214591.jpg'
p918
aS'clothing_images/214645.jpg'
p919
aS'clothing_images/214727.jpg'
p920
aS'clothing_images/21475.jpg'
p921
aS'clothing_images/214790.jpg'
p922
aS'clothing_images/214937.jpg'
p923
aS'clothing_images/215011.jpg'
p924
aS'clothing_images/215214.jpg'
p925
aS'clothing_images/21525.jpg'
p926
aS'clothing_images/215303.jpg'
p927
aS'clothing_images/215356.jpg'
p928
aS'clothing_images/215422.jpg'
p929
aS'clothing_images/215605.jpg'
p930
aS'clothing_images/215702.jpg'
p931
aS'clothing_images/21575.jpg'
p932
aS'clothing_images/215770.jpg'
p933
aS'clothing_images/215885.jpg'
p934
aS'clothing_images/216098.jpg'
p935
aS'clothing_images/216242.jpg'
p936
aS'clothing_images/21627.jpg'
p937
aS'clothing_images/216301.jpg'
p938
aS'clothing_images/216363.jpg'
p939
aS'clothing_images/216470.jpg'
p940
aS'clothing_images/216520.jpg'
p941
aS'clothing_images/216713.jpg'
p942
aS'clothing_images/21677.jpg'
p943
aS'clothing_images/216863.jpg'
p944
aS'clothing_images/216945.jpg'
p945
aS'clothing_images/217063.jpg'
p946
aS'clothing_images/217149.jpg'
p947
aS'clothing_images/217199.jpg'
p948
aS'clothing_images/21729.jpg'
p949
aS'clothing_images/217374.jpg'
p950
aS'clothing_images/217455.jpg'
p951
aS'clothing_images/217528.jpg'
p952
aS'clothing_images/217626.jpg'
p953
aS'clothing_images/217740.jpg'
p954
aS'clothing_images/217794.jpg'
p955
aS'clothing_images/21783.jpg'
p956
aS'clothing_images/217847.jpg'
p957
aS'clothing_images/217931.jpg'
p958
aS'clothing_images/217985.jpg'
p959
aS'clothing_images/218040.jpg'
p960
aS'clothing_images/218191.jpg'
p961
aS'clothing_images/218309.jpg'
p962
aS'clothing_images/21838.jpg'
p963
aS'clothing_images/218393.jpg'
p964
aS'clothing_images/218472.jpg'
p965
aS'clothing_images/218556.jpg'
p966
aS'clothing_images/218619.jpg'
p967
aS'clothing_images/218712.jpg'
p968
aS'clothing_images/218935.jpg'
p969
aS'clothing_images/218998.jpg'
p970
aS'clothing_images/21900.jpg'
p971
aS'clothing_images/219078.jpg'
p972
aS'clothing_images/219174.jpg'
p973
aS'clothing_images/219275.jpg'
p974
aS'clothing_images/219427.jpg'
p975
aS'clothing_images/219567.jpg'
p976
aS'clothing_images/21958.jpg'
p977
aS'clothing_images/219667.jpg'
p978
aS'clothing_images/219987.jpg'
p979
aS'clothing_images/220131.jpg'
p980
aS'clothing_images/22017.jpg'
p981
aS'clothing_images/220231.jpg'
p982
aS'clothing_images/220539.jpg'
p983
aS'clothing_images/220668.jpg'
p984
aS'clothing_images/22071.jpg'
p985
aS'clothing_images/221155.jpg'
p986
aS'clothing_images/22121.jpg'
p987
aS'clothing_images/221231.jpg'
p988
aS'clothing_images/221454.jpg'
p989
aS'clothing_images/22171.jpg'
p990
aS'clothing_images/221855.jpg'
p991
aS'clothing_images/221908.jpg'
p992
aS'clothing_images/22221.jpg'
p993
aS'clothing_images/222286.jpg'
p994
aS'clothing_images/222361.jpg'
p995
aS'clothing_images/22271.jpg'
p996
aS'clothing_images/222752.jpg'
p997
aS'clothing_images/222867.jpg'
p998
aS'clothing_images/222927.jpg'
p999
aS'clothing_images/223013.jpg'
p1000
aS'clothing_images/223196.jpg'
p1001
aS'clothing_images/2232.jpg'
p1002
aS'clothing_images/223253.jpg'
p1003
aS'clothing_images/22326.jpg'
p1004
aS'clothing_images/223338.jpg'
p1005
aS'clothing_images/223653.jpg'
p1006
aS'clothing_images/22376.jpg'
p1007
aS'clothing_images/223897.jpg'
p1008
aS'clothing_images/224152.jpg'
p1009
aS'clothing_images/22426.jpg'
p1010
aS'clothing_images/224274.jpg'
p1011
aS'clothing_images/224335.jpg'
p1012
aS'clothing_images/224483.jpg'
p1013
aS'clothing_images/224554.jpg'
p1014
aS'clothing_images/224682.jpg'
p1015
aS'clothing_images/22476.jpg'
p1016
aS'clothing_images/224909.jpg'
p1017
aS'clothing_images/225051.jpg'
p1018
aS'clothing_images/225217.jpg'
p1019
aS'clothing_images/225406.jpg'
p1020
aS'clothing_images/225533.jpg'
p1021
aS'clothing_images/22558.jpg'
p1022
aS'clothing_images/225639.jpg'
p1023
aS'clothing_images/225771.jpg'
p1024
aS'clothing_images/225839.jpg'
p1025
aS'clothing_images/225972.jpg'
p1026
aS'clothing_images/22608.jpg'
p1027
aS'clothing_images/226307.jpg'
p1028
aS'clothing_images/226453.jpg'
p1029
aS'clothing_images/22658.jpg'
p1030
aS'clothing_images/226978.jpg'
p1031
aS'clothing_images/22710.jpg'
p1032
aS'clothing_images/227471.jpg'
p1033
aS'clothing_images/22760.jpg'
p1034
aS'clothing_images/228044.jpg'
p1035
aS'clothing_images/22810.jpg'
p1036
aS'clothing_images/2283.jpg'
p1037
aS'clothing_images/22860.jpg'
p1038
aS'clothing_images/228603.jpg'
p1039
aS'clothing_images/228851.jpg'
p1040
aS'clothing_images/22910.jpg'
p1041
aS'clothing_images/229201.jpg'
p1042
aS'clothing_images/229437.jpg'
p1043
aS'clothing_images/22960.jpg'
p1044
aS'clothing_images/229672.jpg'
p1045
aS'clothing_images/23010.jpg'
p1046
aS'clothing_images/23060.jpg'
p1047
aS'clothing_images/230603.jpg'
p1048
aS'clothing_images/23110.jpg'
p1049
aS'clothing_images/23160.jpg'
p1050
aS'clothing_images/23215.jpg'
p1051
aS'clothing_images/23269.jpg'
p1052
aS'clothing_images/232955.jpg'
p1053
aS'clothing_images/233080.jpg'
p1054
aS'clothing_images/23320.jpg'
p1055
aS'clothing_images/233257.jpg'
p1056
aS'clothing_images/23430.jpg'
p1057
aS'clothing_images/234617.jpg'
p1058
aS'clothing_images/234667.jpg'
p1059
aS'clothing_images/234719.jpg'
p1060
aS'clothing_images/234775.jpg'
p1061
aS'clothing_images/23485.jpg'
p1062
aS'clothing_images/234869.jpg'
p1063
aS'clothing_images/234980.jpg'
p1064
aS'clothing_images/235030.jpg'
p1065
aS'clothing_images/235080.jpg'
p1066
aS'clothing_images/235200.jpg'
p1067
aS'clothing_images/235255.jpg'
p1068
aS'clothing_images/23535.jpg'
p1069
aS'clothing_images/235415.jpg'
p1070
aS'clothing_images/235485.jpg'
p1071
aS'clothing_images/2355.jpg'
p1072
aS'clothing_images/235579.jpg'
p1073
aS'clothing_images/235647.jpg'
p1074
aS'clothing_images/235703.jpg'
p1075
aS'clothing_images/235753.jpg'
p1076
aS'clothing_images/23585.jpg'
p1077
aS'clothing_images/235910.jpg'
p1078
aS'clothing_images/236058.jpg'
p1079
aS'clothing_images/236126.jpg'
p1080
aS'clothing_images/236198.jpg'
p1081
aS'clothing_images/236253.jpg'
p1082
aS'clothing_images/236303.jpg'
p1083
aS'clothing_images/236381.jpg'
p1084
aS'clothing_images/236458.jpg'
p1085
aS'clothing_images/23647.jpg'
p1086
aS'clothing_images/236508.jpg'
p1087
aS'clothing_images/236563.jpg'
p1088
aS'clothing_images/236636.jpg'
p1089
aS'clothing_images/236717.jpg'
p1090
aS'clothing_images/236811.jpg'
p1091
aS'clothing_images/236882.jpg'
p1092
aS'clothing_images/236932.jpg'
p1093
aS'clothing_images/236986.jpg'
p1094
aS'clothing_images/237050.jpg'
p1095
aS'clothing_images/23710.jpg'
p1096
aS'clothing_images/237107.jpg'
p1097
aS'clothing_images/237157.jpg'
p1098
aS'clothing_images/237207.jpg'
p1099
aS'clothing_images/237264.jpg'
p1100
aS'clothing_images/237331.jpg'
p1101
aS'clothing_images/237385.jpg'
p1102
aS'clothing_images/237513.jpg'
p1103
aS'clothing_images/237564.jpg'
p1104
aS'clothing_images/23760.jpg'
p1105
aS'clothing_images/237629.jpg'
p1106
aS'clothing_images/237720.jpg'
p1107
aS'clothing_images/237903.jpg'
p1108
aS'clothing_images/237956.jpg'
p1109
aS'clothing_images/23810.jpg'
p1110
aS'clothing_images/238180.jpg'
p1111
aS'clothing_images/238267.jpg'
p1112
aS'clothing_images/238370.jpg'
p1113
aS'clothing_images/238423.jpg'
p1114
aS'clothing_images/238491.jpg'
p1115
aS'clothing_images/23860.jpg'
p1116
aS'clothing_images/238634.jpg'
p1117
aS'clothing_images/238699.jpg'
p1118
aS'clothing_images/238789.jpg'
p1119
aS'clothing_images/238877.jpg'
p1120
aS'clothing_images/239018.jpg'
p1121
aS'clothing_images/23910.jpg'
p1122
aS'clothing_images/239162.jpg'
p1123
aS'clothing_images/239234.jpg'
p1124
aS'clothing_images/239469.jpg'
p1125
aS'clothing_images/239519.jpg'
p1126
aS'clothing_images/239569.jpg'
p1127
aS'clothing_images/23973.jpg'
p1128
aS'clothing_images/239877.jpg'
p1129
aS'clothing_images/240064.jpg'
p1130
aS'clothing_images/240114.jpg'
p1131
aS'clothing_images/240168.jpg'
p1132
aS'clothing_images/240253.jpg'
p1133
aS'clothing_images/240342.jpg'
p1134
aS'clothing_images/24043.jpg'
p1135
aS'clothing_images/24106.jpg'
p1136
aS'clothing_images/24156.jpg'
p1137
aS'clothing_images/24206.jpg'
p1138
aS'clothing_images/24256.jpg'
p1139
aS'clothing_images/2428.jpg'
p1140
aS'clothing_images/24309.jpg'
p1141
aS'clothing_images/24363.jpg'
p1142
aS'clothing_images/24413.jpg'
p1143
aS'clothing_images/24463.jpg'
p1144
aS'clothing_images/24513.jpg'
p1145
aS'clothing_images/24563.jpg'
p1146
aS'clothing_images/24613.jpg'
p1147
aS'clothing_images/24663.jpg'
p1148
aS'clothing_images/24713.jpg'
p1149
aS'clothing_images/24763.jpg'
p1150
aS'clothing_images/2478.jpg'
p1151
aS'clothing_images/24813.jpg'
p1152
aS'clothing_images/24868.jpg'
p1153
aS'clothing_images/24918.jpg'
p1154
aS'clothing_images/24968.jpg'
p1155
aS'clothing_images/25018.jpg'
p1156
aS'clothing_images/25069.jpg'
p1157
aS'clothing_images/25119.jpg'
p1158
aS'clothing_images/25174.jpg'
p1159
aS'clothing_images/25230.jpg'
p1160
aS'clothing_images/2528.jpg'
p1161
aS'clothing_images/25280.jpg'
p1162
aS'clothing_images/25335.jpg'
p1163
aS'clothing_images/25390.jpg'
p1164
aS'clothing_images/25475.jpg'
p1165
aS'clothing_images/25575.jpg'
p1166
aS'clothing_images/25625.jpg'
p1167
aS'clothing_images/25675.jpg'
p1168
aS'clothing_images/25725.jpg'
p1169
aS'clothing_images/25776.jpg'
p1170
aS'clothing_images/2580.jpg'
p1171
aS'clothing_images/25833.jpg'
p1172
aS'clothing_images/25883.jpg'
p1173
aS'clothing_images/25933.jpg'
p1174
aS'clothing_images/25983.jpg'
p1175
aS'clothing_images/26033.jpg'
p1176
aS'clothing_images/26083.jpg'
p1177
aS'clothing_images/26133.jpg'
p1178
aS'clothing_images/26210.jpg'
p1179
aS'clothing_images/26260.jpg'
p1180
aS'clothing_images/2630.jpg'
p1181
aS'clothing_images/26310.jpg'
p1182
aS'clothing_images/26364.jpg'
p1183
aS'clothing_images/26419.jpg'
p1184
aS'clothing_images/26469.jpg'
p1185
aS'clothing_images/26519.jpg'
p1186
aS'clothing_images/26569.jpg'
p1187
aS'clothing_images/26619.jpg'
p1188
aS'clothing_images/26669.jpg'
p1189
aS'clothing_images/26719.jpg'
p1190
aS'clothing_images/26771.jpg'
p1191
aS'clothing_images/2680.jpg'
p1192
aS'clothing_images/26834.jpg'
p1193
aS'clothing_images/26884.jpg'
p1194
aS'clothing_images/26934.jpg'
p1195
aS'clothing_images/26984.jpg'
p1196
aS'clothing_images/27034.jpg'
p1197
aS'clothing_images/27090.jpg'
p1198
aS'clothing_images/27140.jpg'
p1199
aS'clothing_images/27190.jpg'
p1200
aS'clothing_images/27240.jpg'
p1201
aS'clothing_images/27293.jpg'
p1202
aS'clothing_images/2730.jpg'
p1203
aS'clothing_images/27343.jpg'
p1204
aS'clothing_images/27396.jpg'
p1205
aS'clothing_images/27457.jpg'
p1206
aS'clothing_images/27507.jpg'
p1207
aS'clothing_images/27557.jpg'
p1208
aS'clothing_images/27607.jpg'
p1209
aS'clothing_images/27657.jpg'
p1210
aS'clothing_images/27712.jpg'
p1211
aS'clothing_images/27762.jpg'
p1212
aS'clothing_images/2780.jpg'
p1213
aS'clothing_images/27819.jpg'
p1214
aS'clothing_images/27874.jpg'
p1215
aS'clothing_images/27924.jpg'
p1216
aS'clothing_images/27974.jpg'
p1217
aS'clothing_images/28024.jpg'
p1218
aS'clothing_images/28074.jpg'
p1219
aS'clothing_images/28124.jpg'
p1220
aS'clothing_images/28174.jpg'
p1221
aS'clothing_images/28236.jpg'
p1222
aS'clothing_images/28286.jpg'
p1223
aS'clothing_images/28336.jpg'
p1224
aS'clothing_images/2837.jpg'
p1225
aS'clothing_images/28386.jpg'
p1226
aS'clothing_images/28436.jpg'
p1227
aS'clothing_images/28486.jpg'
p1228
aS'clothing_images/28536.jpg'
p1229
aS'clothing_images/28586.jpg'
p1230
aS'clothing_images/28636.jpg'
p1231
aS'clothing_images/28686.jpg'
p1232
aS'clothing_images/28739.jpg'
p1233
aS'clothing_images/28813.jpg'
p1234
aS'clothing_images/28863.jpg'
p1235
aS'clothing_images/28920.jpg'
p1236
aS'clothing_images/28970.jpg'
p1237
aS'clothing_images/29023.jpg'
p1238
aS'clothing_images/29075.jpg'
p1239
aS'clothing_images/2908.jpg'
p1240
aS'clothing_images/29140.jpg'
p1241
aS'clothing_images/29190.jpg'
p1242
aS'clothing_images/29240.jpg'
p1243
aS'clothing_images/29290.jpg'
p1244
aS'clothing_images/29340.jpg'
p1245
aS'clothing_images/29397.jpg'
p1246
aS'clothing_images/29466.jpg'
p1247
aS'clothing_images/29534.jpg'
p1248
aS'clothing_images/29598.jpg'
p1249
aS'clothing_images/29653.jpg'
p1250
aS'clothing_images/29703.jpg'
p1251
aS'clothing_images/2974.jpg'
p1252
aS'clothing_images/29835.jpg'
p1253
aS'clothing_images/29885.jpg'
p1254
aS'clothing_images/30019.jpg'
p1255
aS'clothing_images/30079.jpg'
p1256
aS'clothing_images/30129.jpg'
p1257
aS'clothing_images/30179.jpg'
p1258
aS'clothing_images/30229.jpg'
p1259
aS'clothing_images/30282.jpg'
p1260
aS'clothing_images/30332.jpg'
p1261
aS'clothing_images/30382.jpg'
p1262
aS'clothing_images/30444.jpg'
p1263
aS'clothing_images/30524.jpg'
p1264
aS'clothing_images/30574.jpg'
p1265
aS'clothing_images/30624.jpg'
p1266
aS'clothing_images/30674.jpg'
p1267
aS'clothing_images/30724.jpg'
p1268
aS'clothing_images/30784.jpg'
p1269
aS'clothing_images/3079.jpg'
p1270
aS'clothing_images/30834.jpg'
p1271
aS'clothing_images/30884.jpg'
p1272
aS'clothing_images/30934.jpg'
p1273
aS'clothing_images/31045.jpg'
p1274
aS'clothing_images/31095.jpg'
p1275
aS'clothing_images/31149.jpg'
p1276
aS'clothing_images/31199.jpg'
p1277
aS'clothing_images/31249.jpg'
p1278
aS'clothing_images/31302.jpg'
p1279
aS'clothing_images/31352.jpg'
p1280
aS'clothing_images/3140.jpg'
p1281
aS'clothing_images/31402.jpg'
p1282
aS'clothing_images/31461.jpg'
p1283
aS'clothing_images/31533.jpg'
p1284
aS'clothing_images/31583.jpg'
p1285
aS'clothing_images/31633.jpg'
p1286
aS'clothing_images/31683.jpg'
p1287
aS'clothing_images/31733.jpg'
p1288
aS'clothing_images/31783.jpg'
p1289
aS'clothing_images/31838.jpg'
p1290
aS'clothing_images/31915.jpg'
p1291
aS'clothing_images/3195.jpg'
p1292
aS'clothing_images/31965.jpg'
p1293
aS'clothing_images/32015.jpg'
p1294
aS'clothing_images/32065.jpg'
p1295
aS'clothing_images/32115.jpg'
p1296
aS'clothing_images/32165.jpg'
p1297
aS'clothing_images/32215.jpg'
p1298
aS'clothing_images/32272.jpg'
p1299
aS'clothing_images/32322.jpg'
p1300
aS'clothing_images/32397.jpg'
p1301
aS'clothing_images/32447.jpg'
p1302
aS'clothing_images/32497.jpg'
p1303
aS'clothing_images/32552.jpg'
p1304
aS'clothing_images/32602.jpg'
p1305
aS'clothing_images/32652.jpg'
p1306
aS'clothing_images/32734.jpg'
p1307
aS'clothing_images/32784.jpg'
p1308
aS'clothing_images/32839.jpg'
p1309
aS'clothing_images/32889.jpg'
p1310
aS'clothing_images/32943.jpg'
p1311
aS'clothing_images/3299.jpg'
p1312
aS'clothing_images/33010.jpg'
p1313
aS'clothing_images/33065.jpg'
p1314
aS'clothing_images/33115.jpg'
p1315
aS'clothing_images/33165.jpg'
p1316
aS'clothing_images/33219.jpg'
p1317
aS'clothing_images/33269.jpg'
p1318
aS'clothing_images/333.jpg'
p1319
aS'clothing_images/33319.jpg'
p1320
aS'clothing_images/33373.jpg'
p1321
aS'clothing_images/33423.jpg'
p1322
aS'clothing_images/33474.jpg'
p1323
aS'clothing_images/33529.jpg'
p1324
aS'clothing_images/3353.jpg'
p1325
aS'clothing_images/33594.jpg'
p1326
aS'clothing_images/33649.jpg'
p1327
aS'clothing_images/33708.jpg'
p1328
aS'clothing_images/33758.jpg'
p1329
aS'clothing_images/33808.jpg'
p1330
aS'clothing_images/33871.jpg'
p1331
aS'clothing_images/33921.jpg'
p1332
aS'clothing_images/33975.jpg'
p1333
aS'clothing_images/34037.jpg'
p1334
aS'clothing_images/34095.jpg'
p1335
aS'clothing_images/3413.jpg'
p1336
aS'clothing_images/34204.jpg'
p1337
aS'clothing_images/34254.jpg'
p1338
aS'clothing_images/34305.jpg'
p1339
aS'clothing_images/34355.jpg'
p1340
aS'clothing_images/34415.jpg'
p1341
aS'clothing_images/34484.jpg'
p1342
aS'clothing_images/34545.jpg'
p1343
aS'clothing_images/34606.jpg'
p1344
aS'clothing_images/3465.jpg'
p1345
aS'clothing_images/34656.jpg'
p1346
aS'clothing_images/34706.jpg'
p1347
aS'clothing_images/34756.jpg'
p1348
aS'clothing_images/34820.jpg'
p1349
aS'clothing_images/34870.jpg'
p1350
aS'clothing_images/34927.jpg'
p1351
aS'clothing_images/34977.jpg'
p1352
aS'clothing_images/35034.jpg'
p1353
aS'clothing_images/35084.jpg'
p1354
aS'clothing_images/35134.jpg'
p1355
aS'clothing_images/35184.jpg'
p1356
aS'clothing_images/3519.jpg'
p1357
aS'clothing_images/35242.jpg'
p1358
aS'clothing_images/35292.jpg'
p1359
aS'clothing_images/35342.jpg'
p1360
aS'clothing_images/35392.jpg'
p1361
aS'clothing_images/35442.jpg'
p1362
aS'clothing_images/35492.jpg'
p1363
aS'clothing_images/35542.jpg'
p1364
aS'clothing_images/35592.jpg'
p1365
aS'clothing_images/35652.jpg'
p1366
aS'clothing_images/35702.jpg'
p1367
aS'clothing_images/35752.jpg'
p1368
aS'clothing_images/3578.jpg'
p1369
aS'clothing_images/35802.jpg'
p1370
aS'clothing_images/35852.jpg'
p1371
aS'clothing_images/35902.jpg'
p1372
aS'clothing_images/35952.jpg'
p1373
aS'clothing_images/36002.jpg'
p1374
aS'clothing_images/36052.jpg'
p1375
aS'clothing_images/36102.jpg'
p1376
aS'clothing_images/36152.jpg'
p1377
aS'clothing_images/36219.jpg'
p1378
aS'clothing_images/36269.jpg'
p1379
aS'clothing_images/3629.jpg'
p1380
aS'clothing_images/36319.jpg'
p1381
aS'clothing_images/36369.jpg'
p1382
aS'clothing_images/36419.jpg'
p1383
aS'clothing_images/36471.jpg'
p1384
aS'clothing_images/36521.jpg'
p1385
aS'clothing_images/36574.jpg'
p1386
aS'clothing_images/36624.jpg'
p1387
aS'clothing_images/36674.jpg'
p1388
aS'clothing_images/36724.jpg'
p1389
aS'clothing_images/36774.jpg'
p1390
aS'clothing_images/3679.jpg'
p1391
aS'clothing_images/36824.jpg'
p1392
aS'clothing_images/36874.jpg'
p1393
aS'clothing_images/36928.jpg'
p1394
aS'clothing_images/36978.jpg'
p1395
aS'clothing_images/37028.jpg'
p1396
aS'clothing_images/37078.jpg'
p1397
aS'clothing_images/37128.jpg'
p1398
aS'clothing_images/37181.jpg'
p1399
aS'clothing_images/37231.jpg'
p1400
aS'clothing_images/37288.jpg'
p1401
aS'clothing_images/37338.jpg'
p1402
aS'clothing_images/3735.jpg'
p1403
aS'clothing_images/37391.jpg'
p1404
aS'clothing_images/37441.jpg'
p1405
aS'clothing_images/37491.jpg'
p1406
aS'clothing_images/37541.jpg'
p1407
aS'clothing_images/37591.jpg'
p1408
aS'clothing_images/37641.jpg'
p1409
aS'clothing_images/37691.jpg'
p1410
aS'clothing_images/37741.jpg'
p1411
aS'clothing_images/37793.jpg'
p1412
aS'clothing_images/37843.jpg'
p1413
aS'clothing_images/3788.jpg'
p1414
aS'clothing_images/37893.jpg'
p1415
aS'clothing_images/37948.jpg'
p1416
aS'clothing_images/38002.jpg'
p1417
aS'clothing_images/38052.jpg'
p1418
aS'clothing_images/38102.jpg'
p1419
aS'clothing_images/38152.jpg'
p1420
aS'clothing_images/38202.jpg'
p1421
aS'clothing_images/38252.jpg'
p1422
aS'clothing_images/38306.jpg'
p1423
aS'clothing_images/38356.jpg'
p1424
aS'clothing_images/3840.jpg'
p1425
aS'clothing_images/38456.jpg'
p1426
aS'clothing_images/38506.jpg'
p1427
aS'clothing_images/38556.jpg'
p1428
aS'clothing_images/38620.jpg'
p1429
aS'clothing_images/38670.jpg'
p1430
aS'clothing_images/38720.jpg'
p1431
aS'clothing_images/38770.jpg'
p1432
aS'clothing_images/38820.jpg'
p1433
aS'clothing_images/38870.jpg'
p1434
aS'clothing_images/38920.jpg'
p1435
aS'clothing_images/3896.jpg'
p1436
aS'clothing_images/38970.jpg'
p1437
aS'clothing_images/39020.jpg'
p1438
aS'clothing_images/39072.jpg'
p1439
aS'clothing_images/39122.jpg'
p1440
aS'clothing_images/39172.jpg'
p1441
aS'clothing_images/39222.jpg'
p1442
aS'clothing_images/39277.jpg'
p1443
aS'clothing_images/39327.jpg'
p1444
aS'clothing_images/39377.jpg'
p1445
aS'clothing_images/39477.jpg'
p1446
aS'clothing_images/39527.jpg'
p1447
aS'clothing_images/39577.jpg'
p1448
aS'clothing_images/39627.jpg'
p1449
aS'clothing_images/39680.jpg'
p1450
aS'clothing_images/39730.jpg'
p1451
aS'clothing_images/39780.jpg'
p1452
aS'clothing_images/3982.jpg'
p1453
aS'clothing_images/39830.jpg'
p1454
aS'clothing_images/39880.jpg'
p1455
aS'clothing_images/39935.jpg'
p1456
aS'clothing_images/39985.jpg'
p1457
aS'clothing_images/40035.jpg'
p1458
aS'clothing_images/40085.jpg'
p1459
aS'clothing_images/40135.jpg'
p1460
aS'clothing_images/40186.jpg'
p1461
aS'clothing_images/40247.jpg'
p1462
aS'clothing_images/40303.jpg'
p1463
aS'clothing_images/4032.jpg'
p1464
aS'clothing_images/40367.jpg'
p1465
aS'clothing_images/40422.jpg'
p1466
aS'clothing_images/40649.jpg'
p1467
aS'clothing_images/40719.jpg'
p1468
aS'clothing_images/40819.jpg'
p1469
aS'clothing_images/40885.jpg'
p1470
aS'clothing_images/41024.jpg'
p1471
aS'clothing_images/41075.jpg'
p1472
aS'clothing_images/4109.jpg'
p1473
aS'clothing_images/41177.jpg'
p1474
aS'clothing_images/41236.jpg'
p1475
aS'clothing_images/41378.jpg'
p1476
aS'clothing_images/41433.jpg'
p1477
aS'clothing_images/41500.jpg'
p1478
aS'clothing_images/41550.jpg'
p1479
aS'clothing_images/4160.jpg'
p1480
aS'clothing_images/41624.jpg'
p1481
aS'clothing_images/41717.jpg'
p1482
aS'clothing_images/41798.jpg'
p1483
aS'clothing_images/41859.jpg'
p1484
aS'clothing_images/41941.jpg'
p1485
aS'clothing_images/42005.jpg'
p1486
aS'clothing_images/42060.jpg'
p1487
aS'clothing_images/42116.jpg'
p1488
aS'clothing_images/42170.jpg'
p1489
aS'clothing_images/42255.jpg'
p1490
aS'clothing_images/42305.jpg'
p1491
aS'clothing_images/42358.jpg'
p1492
aS'clothing_images/42436.jpg'
p1493
aS'clothing_images/42526.jpg'
p1494
aS'clothing_images/42600.jpg'
p1495
aS'clothing_images/42651.jpg'
p1496
aS'clothing_images/42708.jpg'
p1497
aS'clothing_images/42773.jpg'
p1498
aS'clothing_images/4288.jpg'
p1499
aS'clothing_images/42959.jpg'
p1500
aS'clothing_images/43025.jpg'
p1501
a.
